target datalayout = "e-m:e-p270:32:32-p271:32:32-p272:64:64-i64:64-i128:128-f80:128-n8:16:32:64-S128"
target triple = "x86_64-pc-linux-gnu"

%struct._9p_hashkey = type { i32, i16, i32 }

; Function Attrs: nounwind null_pointer_is_valid sspstrong uwtable
define internal i32 @_9p_hash_equal(ptr noundef %0, ptr noundef %1) #3 {
  %3 = alloca ptr, align 8
  %4 = alloca ptr, align 8
  %5 = alloca ptr, align 8
  %6 = alloca ptr, align 8
  store ptr %0, ptr %3, align 8
  store ptr %1, ptr %4, align 8
  call void @llvm.lifetime.start.p0(i64 8, ptr %5) #7
  %7 = load ptr, ptr %3, align 8
  store ptr %7, ptr %5, align 8
  call void @llvm.lifetime.start.p0(i64 8, ptr %6) #7
  %8 = load ptr, ptr %4, align 8
  store ptr %8, ptr %6, align 8
  %9 = load ptr, ptr %5, align 8
  %10 = getelementptr inbounds nuw %struct._9p_hashkey, ptr %9, i32 0, i32 0
  %11 = load i32, ptr %10, align 4
  %12 = load ptr, ptr %6, align 8
  %13 = getelementptr inbounds nuw %struct._9p_hashkey, ptr %12, i32 0, i32 0
  %14 = load i32, ptr %13, align 4
  %15 = icmp eq i32 %11, %14
  br i1 %15, label %16, label %34

16:                                               ; preds = %2
  %17 = load ptr, ptr %5, align 8
  %18 = getelementptr inbounds nuw %struct._9p_hashkey, ptr %17, i32 0, i32 1
  %19 = load i16, ptr %18, align 4
  %20 = zext i16 %19 to i32
  %21 = load ptr, ptr %6, align 8
  %22 = getelementptr inbounds nuw %struct._9p_hashkey, ptr %21, i32 0, i32 1
  %23 = load i16, ptr %22, align 4
  %24 = zext i16 %23 to i32
  %25 = icmp eq i32 %20, %24
  br i1 %25, label %26, label %34

26:                                               ; preds = %16
  %27 = load ptr, ptr %5, align 8
  %28 = getelementptr inbounds nuw %struct._9p_hashkey, ptr %27, i32 0, i32 2
  %29 = load i32, ptr %28, align 4
  %30 = load ptr, ptr %6, align 8
  %31 = getelementptr inbounds nuw %struct._9p_hashkey, ptr %30, i32 0, i32 2
  %32 = load i32, ptr %31, align 4
  %33 = icmp eq i32 %29, %32
  br label %34

34:                                               ; preds = %26, %16, %2
  %35 = phi i1 [ false, %16 ], [ false, %2 ], [ %33, %26 ]
  %36 = zext i1 %35 to i32
  call void @llvm.lifetime.end.p0(i64 8, ptr %6) #7
  call void @llvm.lifetime.end.p0(i64 8, ptr %5) #7
  ret i32 %36
}